target datalayout = "e-m:e-p270:32:32-p271:32:32-p272:64:64-i64:64-i128:128-f80:128-n8:16:32:64-S128"
target triple = "x86_64-pc-linux-gnu"

%struct.expert_field = type { i32, i32 }
%struct._packet_info = type { ptr, ptr, i32, i32, %struct.nstime_t, %struct.nstime_t, %struct.nstime_t, i8, ptr, ptr, ptr, ptr, %struct._address, %struct._address, %struct._address, %struct._address, %struct._address, %struct._address, i32, ptr, i8, [3 x i8], %struct.anon, i32, i32, i32, i32, ptr, i8, ptr, ptr, i16, i16, i32, i32, i16, i32, i32, ptr, ptr, ptr, i8, i8, i16, i16, i16, i32, i16, i16, ptr, ptr, ptr, ptr, ptr, i32, i32 }
%struct.nstime_t = type { i64, i32 }
%struct._address = type { i32, i32, ptr, ptr }
%struct.anon = type { i8, [3 x i8] }

@hf_gtpv2_apn = internal global i32 0, align 4
@hf_gtpv2_relative_capacity = internal global i32 0, align 4
@hf_gtpv2_apn_length = internal global i32 0, align 4
@ei_gtpv2_apn_too_long = internal global %struct.expert_field zeroinitializer, align 4
@.str.1848 = private unnamed_addr constant [59 x i8] c"Relative Capacity: value beyond (1,100) is considered as 0\00", align 1

; Function Attrs: null_pointer_is_valid sspstrong uwtable
define internal void @dissect_gtpv2_apn_and_relative_capacity(ptr noundef %0, ptr noundef %1, ptr noundef %2, ptr noundef %3, i16 noundef zeroext %4, i8 noundef zeroext %5, i8 noundef zeroext %6, ptr noundef %7) #1 {
  %9 = alloca ptr, align 8
  %10 = alloca ptr, align 8
  %11 = alloca ptr, align 8
  %12 = alloca ptr, align 8
  %13 = alloca i16, align 2
  %14 = alloca i8, align 1
  %15 = alloca i8, align 1
  %16 = alloca ptr, align 8
  %17 = alloca i32, align 4
  %18 = alloca i8, align 1
  %19 = alloca i8, align 1
  %20 = alloca ptr, align 8
  %21 = alloca ptr, align 8
  store ptr %0, ptr %9, align 8
  store ptr %1, ptr %10, align 8
  store ptr %2, ptr %11, align 8
  store ptr %3, ptr %12, align 8
  store i16 %4, ptr %13, align 2
  store i8 %5, ptr %14, align 1
  store i8 %6, ptr %15, align 1
  store ptr %7, ptr %16, align 8
  call void @llvm.lifetime.start.p0(i64 4, ptr %17) #11
  store i32 0, ptr %17, align 4
  call void @llvm.lifetime.start.p0(i64 1, ptr %18) #11
  call void @llvm.lifetime.start.p0(i64 1, ptr %19) #11
  call void @llvm.lifetime.start.p0(i64 8, ptr %20) #11
  store ptr null, ptr %20, align 8
  %22 = load ptr, ptr %9, align 8
  %23 = load i32, ptr %17, align 4
  %24 = call zeroext i8 @tvb_get_uint8(ptr noundef %22, i32 noundef %23)
  store i8 %24, ptr %18, align 1
  %25 = load ptr, ptr %11, align 8
  %26 = load i32, ptr @hf_gtpv2_relative_capacity, align 4
  %27 = load ptr, ptr %9, align 8
  %28 = load i32, ptr %17, align 4
  %29 = call ptr @proto_tree_add_item(ptr noundef %25, i32 noundef %26, ptr noundef %27, i32 noundef %28, i32 noundef 1, i32 noundef 0)
  %30 = load i8, ptr %18, align 1
  %31 = zext i8 %30 to i32
  %32 = icmp sgt i32 %31, 100
  br i1 %32, label %37, label %33

33:                                               ; preds = %8
  %34 = load i8, ptr %18, align 1
  %35 = zext i8 %34 to i32
  %36 = icmp slt i32 %35, 1
  br i1 %36, label %37, label %39

37:                                               ; preds = %33, %8
  %38 = load ptr, ptr %12, align 8
  call void (ptr, ptr, ...) @proto_item_append_text(ptr noundef %38, ptr noundef @.str.1848)
  br label %39

39:                                               ; preds = %37, %33
  %40 = load i32, ptr %17, align 4
  %41 = add i32 %40, 1
  store i32 %41, ptr %17, align 4
  %42 = load ptr, ptr %9, align 8
  %43 = load i32, ptr %17, align 4
  %44 = call zeroext i8 @tvb_get_uint8(ptr noundef %42, i32 noundef %43)
  store i8 %44, ptr %19, align 1
  %45 = load ptr, ptr %11, align 8
  %46 = load i32, ptr @hf_gtpv2_apn_length, align 4
  %47 = load ptr, ptr %9, align 8
  %48 = load i32, ptr %17, align 4
  %49 = call ptr @proto_tree_add_item(ptr noundef %45, i32 noundef %46, ptr noundef %47, i32 noundef %48, i32 noundef 1, i32 noundef 0)
  %50 = load i32, ptr %17, align 4
  %51 = add i32 %50, 1
  store i32 %51, ptr %17, align 4
  %52 = load i8, ptr %19, align 1
  %53 = zext i8 %52 to i32
  %54 = icmp sgt i32 %53, 0
  br i1 %54, label %55, label %74

55:                                               ; preds = %39
  call void @llvm.lifetime.start.p0(i64 8, ptr %21) #11
  %56 = load ptr, ptr %11, align 8
  %57 = load i32, ptr @hf_gtpv2_apn, align 4
  %58 = load ptr, ptr %9, align 8
  %59 = load i32, ptr %17, align 4
  %60 = load i8, ptr %19, align 1
  %61 = zext i8 %60 to i32
  %62 = load ptr, ptr %10, align 8
  %63 = getelementptr inbounds nuw %struct._packet_info, ptr %62, i32 0, i32 51
  %64 = load ptr, ptr %63, align 8
  %65 = call ptr @proto_tree_add_item_ret_string(ptr noundef %56, i32 noundef %57, ptr noundef %58, i32 noundef %59, i32 noundef %61, i32 noundef 84, ptr noundef %64, ptr noundef %20)
  store ptr %65, ptr %21, align 8
  %66 = load i8, ptr %19, align 1
  %67 = zext i8 %66 to i32
  %68 = icmp sgt i32 %67, 100
  br i1 %68, label %69, label %73

69:                                               ; preds = %55
  %70 = load ptr, ptr %10, align 8
  %71 = load ptr, ptr %21, align 8
  %72 = call ptr @expert_add_info(ptr noundef %70, ptr noundef %71, ptr noundef @ei_gtpv2_apn_too_long)
  br label %73

73:                                               ; preds = %69, %55
  call void @llvm.lifetime.end.p0(i64 8, ptr %21) #11
  br label %74

74:                                               ; preds = %73, %39
  call void @llvm.lifetime.end.p0(i64 8, ptr %20) #11
  call void @llvm.lifetime.end.p0(i64 1, ptr %19) #11
  call void @llvm.lifetime.end.p0(i64 1, ptr %18) #11
  call void @llvm.lifetime.end.p0(i64 4, ptr %17) #11
  ret void
}