; Function Attrs: null_pointer_is_valid sspstrong uwtable
define internal void @dissect_gtpv2_apn_and_relative_capacity(ptr noundef %0, ptr noundef %1, ptr noundef %2, ptr noundef %3, i16 zeroext %4, i8 zeroext %5, i8 zeroext %6, ptr readnone captures(none) %7) #1 {
  %9 = alloca ptr, align 8
  call void @llvm.lifetime.start.p0(i64 8, ptr nonnull %9) #12
  store ptr null, ptr %9, align 8
  %10 = tail call zeroext i8 @tvb_get_uint8(ptr noundef %0, i32 noundef 0)
  %11 = load i32, ptr @hf_gtpv2_relative_capacity, align 4
  %12 = tail call ptr @proto_tree_add_item(ptr noundef %2, i32 noundef %11, ptr noundef %0, i32 noundef 0, i32 noundef 1, i32 noundef 0)
  %13 = add i8 %10, -101
  %or.cond = icmp ult i8 %13, -100
  br i1 %or.cond, label %14, label %15

14:                                               ; preds = %8
  tail call void (ptr, ptr, ...) @proto_item_append_text(ptr noundef %3, ptr noundef nonnull @.str.1848)
  br label %15

15:                                               ; preds = %8, %14
  %16 = tail call zeroext i8 @tvb_get_uint8(ptr noundef %0, i32 noundef 1)
  %17 = load i32, ptr @hf_gtpv2_apn_length, align 4
  %18 = tail call ptr @proto_tree_add_item(ptr noundef %2, i32 noundef %17, ptr noundef %0, i32 noundef 1, i32 noundef 1, i32 noundef 0)
  %.not = icmp eq i8 %16, 0
  br i1 %.not, label %28, label %19

19:                                               ; preds = %15
  %20 = zext i8 %16 to i32
  %21 = load i32, ptr @hf_gtpv2_apn, align 4
  %22 = getelementptr inbounds nuw i8, ptr %1, i64 408
  %23 = load ptr, ptr %22, align 8
  %24 = call ptr @proto_tree_add_item_ret_string(ptr noundef %2, i32 noundef %21, ptr noundef %0, i32 noundef 2, i32 noundef %20, i32 noundef 84, ptr noundef %23, ptr noundef nonnull %9)
  %25 = icmp ugt i8 %16, 100
  br i1 %25, label %26, label %28

26:                                               ; preds = %19
  %27 = call ptr @expert_add_info(ptr noundef %1, ptr noundef %24, ptr noundef nonnull @ei_gtpv2_apn_too_long)
  br label %28

28:                                               ; preds = %19, %26, %15
  call void @llvm.lifetime.end.p0(i64 8, ptr nonnull %9) #12
  ret void
}